target datalayout = "e-m:e-p270:32:32-p271:32:32-p272:64:64-i64:64-i128:128-f80:128-n8:16:32:64-S128"
target triple = "x86_64-pc-linux-gnu"

%union.anon = type { %struct.anon.0 }
%struct.anon.0 = type { ptr, i64, i32 }
%struct.object_info = type { ptr, ptr, ptr, ptr, ptr, ptr, i32, %union.anon }

; Function Attrs: nounwind uwtable
define dso_local i32 @oid_object_info(ptr noundef %0, ptr noundef %1, ptr noundef %2) #0 {
  %4 = alloca i32, align 4
  %5 = alloca ptr, align 8
  %6 = alloca ptr, align 8
  %7 = alloca ptr, align 8
  %8 = alloca i32, align 4
  %9 = alloca %struct.object_info, align 8
  %10 = alloca i32, align 4
  store ptr %0, ptr %5, align 8, !tbaa !19
  store ptr %1, ptr %6, align 8, !tbaa !14
  store ptr %2, ptr %7, align 8, !tbaa !111
  call void @llvm.lifetime.start.p0(i64 4, ptr %8) #14
  call void @llvm.lifetime.start.p0(i64 80, ptr %9) #14
  call void @llvm.memset.p0.i64(ptr align 8 %9, i8 0, i64 80, i1 false)
  %11 = getelementptr inbounds nuw %struct.object_info, ptr %9, i32 0, i32 0
  store ptr %8, ptr %11, align 8, !tbaa !130
  %12 = load ptr, ptr %7, align 8, !tbaa !111
  %13 = getelementptr inbounds nuw %struct.object_info, ptr %9, i32 0, i32 1
  store ptr %12, ptr %13, align 8, !tbaa !131
  %14 = load ptr, ptr %5, align 8, !tbaa !19
  %15 = load ptr, ptr %6, align 8, !tbaa !14
  %16 = call i32 @oid_object_info_extended(ptr noundef %14, ptr noundef %15, ptr noundef %9, i32 noundef 1)
  %17 = icmp slt i32 %16, 0
  br i1 %17, label %18, label %19

18:                                               ; preds = %3
  store i32 -1, ptr %4, align 4
  store i32 1, ptr %10, align 4
  br label %21

19:                                               ; preds = %3
  %20 = load i32, ptr %8, align 4, !tbaa !43
  store i32 %20, ptr %4, align 4
  store i32 1, ptr %10, align 4
  br label %21

21:                                               ; preds = %19, %18
  call void @llvm.lifetime.end.p0(i64 80, ptr %9) #14
  call void @llvm.lifetime.end.p0(i64 4, ptr %8) #14
  %22 = load i32, ptr %4, align 4
  ret i32 %22
}