; Function Attrs: nounwind uwtable
define dso_local i32 @oid_object_info(ptr noundef %0, ptr noundef %1, ptr noundef %2) local_unnamed_addr #1 {
  %4 = alloca i32, align 4
  %5 = alloca %struct.object_info, align 8
  call void @llvm.lifetime.start.p0(i64 4, ptr nonnull %4) #27
  call void @llvm.lifetime.start.p0(i64 80, ptr nonnull %5) #27
  %6 = getelementptr inbounds nuw i8, ptr %5, i64 16
  call void @llvm.memset.p0.i64(ptr noundef nonnull align 8 dereferenceable(80) %6, i8 0, i64 64, i1 false)
  store ptr %4, ptr %5, align 8, !tbaa !116
  %7 = getelementptr inbounds nuw i8, ptr %5, i64 8
  store ptr %2, ptr %7, align 8, !tbaa !117
  %8 = call i32 @oid_object_info_extended(ptr noundef %0, ptr noundef %1, ptr noundef nonnull %5, i32 noundef 1)
  %9 = load i32, ptr %4, align 4
  %.inv = icmp sgt i32 %8, -1
  %.0 = select i1 %.inv, i32 %9, i32 -1
  call void @llvm.lifetime.end.p0(i64 80, ptr nonnull %5) #27
  call void @llvm.lifetime.end.p0(i64 4, ptr nonnull %4) #27
  ret i32 %.0
}